; Function Attrs: mustprogress nofree norecurse nosync nounwind willreturn memory(argmem: read) uwtable
define zeroext i1 @pmix_bfrop_too_small(ptr noundef readonly captures(none) %0, i64 noundef %1) local_unnamed_addr #9 {
  %3 = getelementptr inbounds nuw i8, ptr %0, i64 136
  %4 = load ptr, ptr %3, align 8, !tbaa !120
  %5 = getelementptr inbounds nuw i8, ptr %0, i64 144
  %6 = load ptr, ptr %5, align 8, !tbaa !130
  %7 = icmp ult ptr %4, %6
  %8 = ptrtoint ptr %4 to i64
  %9 = ptrtoint ptr %6 to i64
  %10 = sub i64 %8, %9
  %11 = icmp ult i64 %10, %1
  %.0 = select i1 %7, i1 true, i1 %11
  ret i1 %.0
}